; Function Attrs: mustprogress nounwind uwtable
define hidden void @_ZN6Assimp11MD3ImporterD2Ev(ptr noundef nonnull align 8 dereferenceable(296) %this) unnamed_addr #3 align 2 {
entry:
  store ptr getelementptr inbounds ({ [8 x ptr] }, ptr @_ZTVN6Assimp11MD3ImporterE, i64 0, i32 0, i64 2), ptr %this, align 8
  %filename = getelementptr inbounds i8, ptr %this, i64 248
  tail call void @_ZNSt7__cxx1112basic_stringIcSt11char_traitsIcESaIcEED1Ev(ptr noundef nonnull align 8 dereferenceable(32) %filename) #17
  %path = getelementptr inbounds i8, ptr %this, i64 216
  tail call void @_ZNSt7__cxx1112basic_stringIcSt11char_traitsIcESaIcEED1Ev(ptr noundef nonnull align 8 dereferenceable(32) %path) #17
  %mFile = getelementptr inbounds i8, ptr %this, i64 184
  tail call void @_ZNSt7__cxx1112basic_stringIcSt11char_traitsIcESaIcEED1Ev(ptr noundef nonnull align 8 dereferenceable(32) %mFile) #17
  %configShaderFile = getelementptr inbounds i8, ptr %this, i64 120
  tail call void @_ZNSt7__cxx1112basic_stringIcSt11char_traitsIcESaIcEED1Ev(ptr noundef nonnull align 8 dereferenceable(32) %configShaderFile) #17
  %configSkinFile = getelementptr inbounds i8, ptr %this, i64 80
  tail call void @_ZNSt7__cxx1112basic_stringIcSt11char_traitsIcESaIcEED1Ev(ptr noundef nonnull align 8 dereferenceable(32) %configSkinFile) #17
  tail call void @_ZN6Assimp12BaseImporterD2Ev(ptr noundef nonnull align 8 dereferenceable(72) %this) #17
  ret void
}